target datalayout = "e-m:e-p270:32:32-p271:32:32-p272:64:64-i64:64-i128:128-f80:128-n8:16:32:64-S128"
target triple = "x86_64-pc-linux-gnu"

%struct.mz_zip_archive_tag = type { i64, i64, i32, i32, i32, ptr, ptr, ptr, ptr, ptr, ptr, ptr, ptr }
%struct.mz_zip_internal_state_tag = type { %struct.mz_zip_array, %struct.mz_zip_array, %struct.mz_zip_array, ptr, ptr, i64, i64 }
%struct.mz_zip_array = type { ptr, i64, i64, i32 }

; Function Attrs: mustprogress nounwind uwtable
define internal noundef i64 @_ZL20mz_zip_mem_read_funcPvyS_m(ptr noundef %0, i64 noundef %1, ptr noundef %2, i64 noundef %3) #4 {
  %5 = alloca ptr, align 8
  %6 = alloca i64, align 8
  %7 = alloca ptr, align 8
  %8 = alloca i64, align 8
  %9 = alloca ptr, align 8
  %10 = alloca i64, align 8
  store ptr %0, ptr %5, align 8
  store i64 %1, ptr %6, align 8
  store ptr %2, ptr %7, align 8
  store i64 %3, ptr %8, align 8
  %11 = load ptr, ptr %5, align 8
  store ptr %11, ptr %9, align 8
  %12 = load i64, ptr %6, align 8
  %13 = load ptr, ptr %9, align 8
  %14 = getelementptr inbounds %struct.mz_zip_archive_tag, ptr %13, i32 0, i32 0
  %15 = load i64, ptr %14, align 8
  %16 = icmp uge i64 %12, %15
  br i1 %16, label %17, label %18

17:                                               ; preds = %4
  br label %36

18:                                               ; preds = %4
  %19 = load ptr, ptr %9, align 8
  %20 = getelementptr inbounds %struct.mz_zip_archive_tag, ptr %19, i32 0, i32 0
  %21 = load i64, ptr %20, align 8
  %22 = load i64, ptr %6, align 8
  %23 = sub i64 %21, %22
  %24 = load i64, ptr %8, align 8
  %25 = icmp ult i64 %23, %24
  br i1 %25, label %26, label %32

26:                                               ; preds = %18
  %27 = load ptr, ptr %9, align 8
  %28 = getelementptr inbounds %struct.mz_zip_archive_tag, ptr %27, i32 0, i32 0
  %29 = load i64, ptr %28, align 8
  %30 = load i64, ptr %6, align 8
  %31 = sub i64 %29, %30
  br label %34

32:                                               ; preds = %18
  %33 = load i64, ptr %8, align 8
  br label %34

34:                                               ; preds = %32, %26
  %35 = phi i64 [ %31, %26 ], [ %33, %32 ]
  br label %36

36:                                               ; preds = %34, %17
  %37 = phi i64 [ 0, %17 ], [ %35, %34 ]
  store i64 %37, ptr %10, align 8
  %38 = load ptr, ptr %7, align 8
  %39 = load ptr, ptr %9, align 8
  %40 = getelementptr inbounds %struct.mz_zip_archive_tag, ptr %39, i32 0, i32 12
  %41 = load ptr, ptr %40, align 8
  %42 = getelementptr inbounds %struct.mz_zip_internal_state_tag, ptr %41, i32 0, i32 4
  %43 = load ptr, ptr %42, align 8
  %44 = load i64, ptr %6, align 8
  %45 = getelementptr inbounds i8, ptr %43, i64 %44
  %46 = load i64, ptr %10, align 8
  call void @llvm.memcpy.p0.p0.i64(ptr align 1 %38, ptr align 1 %45, i64 %46, i1 false)
  %47 = load i64, ptr %10, align 8
  ret i64 %47
}