; Function Attrs: mustprogress nofree norecurse nosync nounwind willreturn memory(readwrite, inaccessiblemem: none) uwtable
define internal noundef i64 @_ZL20mz_zip_mem_read_funcPvyS_m(ptr nocapture noundef readonly %0, i64 noundef %1, ptr nocapture noundef writeonly %2, i64 noundef %3) #19 {
  %5 = load i64, ptr %0, align 8
  %.not = icmp ugt i64 %5, %1
  %6 = sub i64 %5, %1
  %. = tail call i64 @llvm.umin.i64(i64 %6, i64 %3)
  %7 = select i1 %.not, i64 %., i64 0
  %8 = getelementptr inbounds i8, ptr %0, i64 88
  %9 = load ptr, ptr %8, align 8
  %10 = getelementptr inbounds i8, ptr %9, i64 104
  %11 = load ptr, ptr %10, align 8
  %12 = getelementptr inbounds i8, ptr %11, i64 %1
  tail call void @llvm.memcpy.p0.p0.i64(ptr align 1 %2, ptr align 1 %12, i64 %7, i1 false)
  ret i64 %7
}